target datalayout = "e-m:e-p270:32:32-p271:32:32-p272:64:64-i64:64-i128:128-f80:128-n8:16:32:64-S128"
target triple = "x86_64-pc-linux-gnu"

%class.btVector3 = type { [4 x float] }
%class.btConeTwistConstraint = type { %class.btTypedConstraint, [3 x %class.btJacobianEntry], %class.btTransform, %class.btTransform, float, float, float, float, float, float, float, float, %class.btVector3, %class.btVector3, float, float, float, float, float, float, float, float, i8, i8, i8, i8, float, float, %class.btVector3, i8, i8, %class.btQuaternion, float, %class.btVector3, i32, float, float, float }
%class.btTypedConstraint = type { ptr, %struct.btTypedObject, i32, %union.anon.0, float, i8, i8, i32, ptr, ptr, float, float, ptr }
%struct.btTypedObject = type { i32 }
%union.anon.0 = type { ptr }
%class.btJacobianEntry = type { %class.btVector3, %class.btVector3, %class.btVector3, %class.btVector3, %class.btVector3, float }
%class.btTransform = type { %class.btMatrix3x3, %class.btVector3 }
%class.btMatrix3x3 = type { [3 x %class.btVector3] }
%class.btQuaternion = type { %class.btQuadWord }
%class.btQuadWord = type { [4 x float] }

; Function Attrs: mustprogress nounwind uwtable
define dso_local void @_ZN21btConeTwistConstraint8setParamEifi(ptr noundef nonnull align 8 dereferenceable(632) %0, i32 noundef %1, float noundef %2, i32 noundef %3) unnamed_addr #1 align 2 {
  %5 = alloca ptr, align 8
  %6 = alloca i32, align 4
  %7 = alloca float, align 4
  %8 = alloca i32, align 4
  store ptr %0, ptr %5, align 8, !tbaa !12
  store i32 %1, ptr %6, align 4, !tbaa !9
  store float %2, ptr %7, align 4, !tbaa !50
  store i32 %3, ptr %8, align 4, !tbaa !9
  %9 = load ptr, ptr %5, align 8
  %10 = load i32, ptr %6, align 4, !tbaa !9
  switch i32 %10, label %46 [
    i32 1, label %11
    i32 2, label %11
    i32 3, label %27
    i32 4, label %27
  ]

11:                                               ; preds = %4, %4
  %12 = load i32, ptr %8, align 4, !tbaa !9
  %13 = icmp sge i32 %12, 0
  br i1 %13, label %14, label %23

14:                                               ; preds = %11
  %15 = load i32, ptr %8, align 4, !tbaa !9
  %16 = icmp slt i32 %15, 3
  br i1 %16, label %17, label %23

17:                                               ; preds = %14
  %18 = load float, ptr %7, align 4, !tbaa !50
  %19 = getelementptr inbounds nuw %class.btConeTwistConstraint, ptr %9, i32 0, i32 36
  store float %18, ptr %19, align 8, !tbaa !48
  %20 = getelementptr inbounds nuw %class.btConeTwistConstraint, ptr %9, i32 0, i32 34
  %21 = load i32, ptr %20, align 8, !tbaa !46
  %22 = or i32 %21, 2
  store i32 %22, ptr %20, align 8, !tbaa !46
  br label %26

23:                                               ; preds = %14, %11
  %24 = load float, ptr %7, align 4, !tbaa !50
  %25 = getelementptr inbounds nuw %class.btConeTwistConstraint, ptr %9, i32 0, i32 5
  store float %24, ptr %25, align 8, !tbaa !57
  br label %26

26:                                               ; preds = %23, %17
  br label %47

27:                                               ; preds = %4, %4
  %28 = load i32, ptr %8, align 4, !tbaa !9
  %29 = icmp sge i32 %28, 0
  br i1 %29, label %30, label %39

30:                                               ; preds = %27
  %31 = load i32, ptr %8, align 4, !tbaa !9
  %32 = icmp slt i32 %31, 3
  br i1 %32, label %33, label %39

33:                                               ; preds = %30
  %34 = load float, ptr %7, align 4, !tbaa !50
  %35 = getelementptr inbounds nuw %class.btConeTwistConstraint, ptr %9, i32 0, i32 35
  store float %34, ptr %35, align 4, !tbaa !47
  %36 = getelementptr inbounds nuw %class.btConeTwistConstraint, ptr %9, i32 0, i32 34
  %37 = load i32, ptr %36, align 8, !tbaa !46
  %38 = or i32 %37, 1
  store i32 %38, ptr %36, align 8, !tbaa !46
  br label %45

39:                                               ; preds = %30, %27
  %40 = load float, ptr %7, align 4, !tbaa !50
  %41 = getelementptr inbounds nuw %class.btConeTwistConstraint, ptr %9, i32 0, i32 37
  store float %40, ptr %41, align 4, !tbaa !49
  %42 = getelementptr inbounds nuw %class.btConeTwistConstraint, ptr %9, i32 0, i32 34
  %43 = load i32, ptr %42, align 8, !tbaa !46
  %44 = or i32 %43, 4
  store i32 %44, ptr %42, align 8, !tbaa !46
  br label %45

45:                                               ; preds = %39, %33
  br label %47

46:                                               ; preds = %4
  br label %47

47:                                               ; preds = %46, %45, %26
  ret void
}