; Function Attrs: mustprogress nofree norecurse nosync nounwind willreturn memory(argmem: readwrite) uwtable
define dso_local void @_ZN21btConeTwistConstraint8setParamEifi(ptr noundef nonnull align 8 captures(none) dereferenceable(632) %0, i32 noundef %1, float noundef %2, i32 noundef %3) unnamed_addr #10 align 2 {
  switch i32 %1, label %23 [
    i32 1, label %5
    i32 2, label %5
    i32 3, label %13
    i32 4, label %13
  ]

5:                                                ; preds = %4, %4
  %or.cond = icmp ult i32 %3, 3
  br i1 %or.cond, label %6, label %11

6:                                                ; preds = %5
  %7 = getelementptr inbounds nuw i8, ptr %0, i64 624
  store float %2, ptr %7, align 8, !tbaa !36
  %8 = getelementptr inbounds nuw i8, ptr %0, i64 616
  %9 = load i32, ptr %8, align 8, !tbaa !34
  %10 = or i32 %9, 2
  store i32 %10, ptr %8, align 8, !tbaa !34
  br label %23

11:                                               ; preds = %5
  %12 = getelementptr inbounds nuw i8, ptr %0, i64 456
  store float %2, ptr %12, align 8, !tbaa !30
  br label %23

13:                                               ; preds = %4, %4
  %or.cond3 = icmp ult i32 %3, 3
  %14 = getelementptr inbounds nuw i8, ptr %0, i64 616
  br i1 %or.cond3, label %15, label %19

15:                                               ; preds = %13
  %16 = getelementptr inbounds nuw i8, ptr %0, i64 620
  store float %2, ptr %16, align 4, !tbaa !35
  %17 = load i32, ptr %14, align 8, !tbaa !34
  %18 = or i32 %17, 1
  store i32 %18, ptr %14, align 8, !tbaa !34
  br label %23

19:                                               ; preds = %13
  %20 = getelementptr inbounds nuw i8, ptr %0, i64 628
  store float %2, ptr %20, align 4, !tbaa !37
  %21 = load i32, ptr %14, align 8, !tbaa !34
  %22 = or i32 %21, 4
  store i32 %22, ptr %14, align 8, !tbaa !34
  br label %23

23:                                               ; preds = %4, %15, %19, %6, %11
  ret void
}